target datalayout = "e-m:e-p270:32:32-p271:32:32-p272:64:64-i64:64-i128:128-f80:128-n8:16:32:64-S128"
target triple = "x86_64-pc-linux-gnu"

%struct.SDL_AudioDriver = type { ptr, ptr, %struct.SDL_AudioDriverImpl, ptr, ptr, ptr, i32, i32, %struct.SDL_PendingAudioDeviceEvent, ptr, %struct.SDL_AtomicInt, %struct.SDL_AtomicInt, %struct.SDL_AtomicInt }
%struct.SDL_AudioDriverImpl = type { ptr, ptr, ptr, ptr, ptr, ptr, ptr, ptr, ptr, ptr, ptr, ptr, ptr, ptr, i8, i8, i8, i8 }
%struct.SDL_PendingAudioDeviceEvent = type { i32, i32, ptr }
%struct.SDL_AtomicInt = type { i32 }

@current_audio = internal global %struct.SDL_AudioDriver zeroinitializer, align 8
@.str.38 = private unnamed_addr constant [34 x i8] c"No default audio device available\00", align 1

; Function Attrs: nounwind uwtable
define internal ptr @ObtainPhysicalAudioDeviceDefaultAllowed(i32 noundef %0) #0 {
  %2 = alloca ptr, align 8
  %3 = alloca i32, align 4
  %4 = alloca i8, align 1
  %5 = alloca i32, align 4
  %6 = alloca i32, align 4
  %7 = alloca ptr, align 8
  %8 = alloca i8, align 1
  store i32 %0, ptr %3, align 4
  call void @llvm.lifetime.start.p0(i64 1, ptr %4) #6
  %9 = load i32, ptr %3, align 4
  %10 = icmp eq i32 %9, -1
  br i1 %10, label %14, label %11

11:                                               ; preds = %1
  %12 = load i32, ptr %3, align 4
  %13 = icmp eq i32 %12, -2
  br label %14

14:                                               ; preds = %11, %1
  %15 = phi i1 [ true, %1 ], [ %13, %11 ]
  %16 = zext i1 %15 to i8
  store i8 %16, ptr %4, align 1
  %17 = load i8, ptr %4, align 1, !range !5, !noundef !6
  %18 = trunc i8 %17 to i1
  br i1 %18, label %22, label %19

19:                                               ; preds = %14
  %20 = load i32, ptr %3, align 4
  %21 = call ptr @ObtainPhysicalAudioDevice(i32 noundef %20)
  store ptr %21, ptr %2, align 8
  store i32 1, ptr %5, align 4
  br label %81

22:                                               ; preds = %14
  call void @llvm.lifetime.start.p0(i64 4, ptr %6) #6
  %23 = load i32, ptr %3, align 4
  store i32 %23, ptr %6, align 4
  br label %24

24:                                               ; preds = %78, %22
  br label %25

25:                                               ; preds = %24
  %26 = load ptr, ptr getelementptr inbounds nuw (%struct.SDL_AudioDriver, ptr @current_audio, i32 0, i32 3), align 8
  call void @SDL_LockRWLockForReading_REAL(ptr noundef %26)
  %27 = load i32, ptr %6, align 4
  %28 = icmp eq i32 %27, -1
  br i1 %28, label %29, label %31

29:                                               ; preds = %25
  %30 = load i32, ptr getelementptr inbounds nuw (%struct.SDL_AudioDriver, ptr @current_audio, i32 0, i32 6), align 8
  store i32 %30, ptr %3, align 4
  br label %37

31:                                               ; preds = %25
  %32 = load i32, ptr %6, align 4
  %33 = icmp eq i32 %32, -2
  br i1 %33, label %34, label %36

34:                                               ; preds = %31
  %35 = load i32, ptr getelementptr inbounds nuw (%struct.SDL_AudioDriver, ptr @current_audio, i32 0, i32 7), align 4
  store i32 %35, ptr %3, align 4
  br label %36

36:                                               ; preds = %34, %31
  br label %37

37:                                               ; preds = %36, %29
  %38 = load ptr, ptr getelementptr inbounds nuw (%struct.SDL_AudioDriver, ptr @current_audio, i32 0, i32 3), align 8
  call void @SDL_UnlockRWLock_REAL(ptr noundef %38)
  %39 = load i32, ptr %3, align 4
  %40 = icmp eq i32 %39, 0
  br i1 %40, label %41, label %43

41:                                               ; preds = %37
  %42 = call zeroext i1 (ptr, ...) @SDL_SetError_REAL(ptr noundef @.str.38)
  br label %79

43:                                               ; preds = %37
  call void @llvm.lifetime.start.p0(i64 8, ptr %7) #6
  %44 = load i32, ptr %3, align 4
  %45 = call ptr @ObtainPhysicalAudioDevice(i32 noundef %44)
  store ptr %45, ptr %7, align 8
  %46 = load ptr, ptr %7, align 8
  %47 = icmp ne ptr %46, null
  br i1 %47, label %49, label %48

48:                                               ; preds = %43
  store i32 3, ptr %5, align 4
  br label %76

49:                                               ; preds = %43
  call void @llvm.lifetime.start.p0(i64 1, ptr %8) #6
  store i8 0, ptr %8, align 1
  %50 = load ptr, ptr getelementptr inbounds nuw (%struct.SDL_AudioDriver, ptr @current_audio, i32 0, i32 3), align 8
  call void @SDL_LockRWLockForReading_REAL(ptr noundef %50)
  %51 = load i32, ptr %6, align 4
  %52 = icmp eq i32 %51, -1
  br i1 %52, label %53, label %58

53:                                               ; preds = %49
  %54 = load i32, ptr %3, align 4
  %55 = load i32, ptr getelementptr inbounds nuw (%struct.SDL_AudioDriver, ptr @current_audio, i32 0, i32 6), align 8
  %56 = icmp eq i32 %54, %55
  br i1 %56, label %57, label %58

57:                                               ; preds = %53
  store i8 1, ptr %8, align 1
  br label %67

58:                                               ; preds = %53, %49
  %59 = load i32, ptr %6, align 4
  %60 = icmp eq i32 %59, -2
  br i1 %60, label %61, label %66

61:                                               ; preds = %58
  %62 = load i32, ptr %3, align 4
  %63 = load i32, ptr getelementptr inbounds nuw (%struct.SDL_AudioDriver, ptr @current_audio, i32 0, i32 7), align 4
  %64 = icmp eq i32 %62, %63
  br i1 %64, label %65, label %66

65:                                               ; preds = %61
  store i8 1, ptr %8, align 1
  br label %66

66:                                               ; preds = %65, %61, %58
  br label %67

67:                                               ; preds = %66, %57
  %68 = load ptr, ptr getelementptr inbounds nuw (%struct.SDL_AudioDriver, ptr @current_audio, i32 0, i32 3), align 8
  call void @SDL_UnlockRWLock_REAL(ptr noundef %68)
  %69 = load i8, ptr %8, align 1, !range !5, !noundef !6
  %70 = trunc i8 %69 to i1
  br i1 %70, label %71, label %73

71:                                               ; preds = %67
  %72 = load ptr, ptr %7, align 8
  store ptr %72, ptr %2, align 8
  store i32 1, ptr %5, align 4
  br label %75

73:                                               ; preds = %67
  %74 = load ptr, ptr %7, align 8
  call void @ReleaseAudioDevice(ptr noundef %74)
  store i32 0, ptr %5, align 4
  br label %75

75:                                               ; preds = %73, %71
  call void @llvm.lifetime.end.p0(i64 1, ptr %8) #6
  br label %76

76:                                               ; preds = %75, %48
  call void @llvm.lifetime.end.p0(i64 8, ptr %7) #6
  %77 = load i32, ptr %5, align 4
  switch i32 %77, label %80 [
    i32 0, label %78
    i32 3, label %79
  ]

78:                                               ; preds = %76
  br label %24

79:                                               ; preds = %76, %41
  store ptr null, ptr %2, align 8
  store i32 1, ptr %5, align 4
  br label %80

80:                                               ; preds = %79, %76
  call void @llvm.lifetime.end.p0(i64 4, ptr %6) #6
  br label %81

81:                                               ; preds = %80, %19
  call void @llvm.lifetime.end.p0(i64 1, ptr %4) #6
  %82 = load ptr, ptr %2, align 8
  ret ptr %82
}