; Function Attrs: nounwind uwtable
define internal fastcc ptr @ObtainPhysicalAudioDeviceDefaultAllowed(i32 noundef %0) unnamed_addr #0 {
  %.not33 = icmp eq i32 %0, -2
  %2 = icmp ugt i32 %0, -3
  br i1 %2, label %.preheader, label %20

.preheader:                                       ; preds = %1
  %3 = icmp eq i32 %0, -1
  %4 = load ptr, ptr getelementptr inbounds nuw (i8, ptr @current_audio, i64 136), align 8
  tail call void @SDL_LockRWLockForReading_REAL(ptr noundef %4) #14
  %5 = load i32, ptr getelementptr inbounds nuw (i8, ptr @current_audio, i64 160), align 8
  %6 = load i32, ptr getelementptr inbounds nuw (i8, ptr @current_audio, i64 164), align 4
  %spec.select34 = select i1 %.not33, i32 %6, i32 %0
  %.12035 = select i1 %3, i32 %5, i32 %spec.select34
  %7 = load ptr, ptr getelementptr inbounds nuw (i8, ptr @current_audio, i64 136), align 8
  tail call void @SDL_UnlockRWLock_REAL(ptr noundef %7) #14
  %8 = icmp eq i32 %.12035, 0
  br i1 %8, label %._crit_edge, label %.lr.ph

.lr.ph:                                           ; preds = %.preheader
  br i1 %.not33, label %.lr.ph.split.us.split, label %.lr.ph.split.split

.lr.ph.split.us.split:                            ; preds = %.lr.ph, %15
  %.12037.us = phi i32 [ %17, %15 ], [ %.12035, %.lr.ph ]
  %spec.select36.us = phi i32 [ %17, %15 ], [ %6, %.lr.ph ]
  %9 = tail call fastcc ptr @ObtainPhysicalAudioDevice(i32 noundef %.12037.us)
  %.not.us = icmp eq ptr %9, null
  br i1 %.not.us, label %.thread30, label %10

10:                                               ; preds = %.lr.ph.split.us.split
  %11 = load ptr, ptr getelementptr inbounds nuw (i8, ptr @current_audio, i64 136), align 8
  tail call void @SDL_LockRWLockForReading_REAL(ptr noundef %11) #14
  %12 = load i32, ptr getelementptr inbounds nuw (i8, ptr @current_audio, i64 164), align 4
  %13 = icmp eq i32 %spec.select36.us, %12
  %14 = load ptr, ptr getelementptr inbounds nuw (i8, ptr @current_audio, i64 136), align 8
  tail call void @SDL_UnlockRWLock_REAL(ptr noundef %14) #14
  br i1 %13, label %.thread30, label %15

15:                                               ; preds = %10
  tail call fastcc void @ReleaseAudioDevice(ptr noundef nonnull %9)
  %16 = load ptr, ptr getelementptr inbounds nuw (i8, ptr @current_audio, i64 136), align 8
  tail call void @SDL_LockRWLockForReading_REAL(ptr noundef %16) #14
  %17 = load i32, ptr getelementptr inbounds nuw (i8, ptr @current_audio, i64 164), align 4
  %18 = load ptr, ptr getelementptr inbounds nuw (i8, ptr @current_audio, i64 136), align 8
  tail call void @SDL_UnlockRWLock_REAL(ptr noundef %18) #14
  %19 = icmp eq i32 %17, 0
  br i1 %19, label %._crit_edge, label %.lr.ph.split.us.split

20:                                               ; preds = %1
  %21 = tail call fastcc ptr @ObtainPhysicalAudioDevice(i32 noundef %0)
  br label %.thread30

._crit_edge:                                      ; preds = %29, %15, %.preheader
  %22 = tail call zeroext i1 (ptr, ...) @SDL_SetError_REAL(ptr noundef nonnull @.str.38) #14
  br label %.thread30

.lr.ph.split.split:                               ; preds = %.lr.ph, %29
  %.12037 = phi i32 [ %31, %29 ], [ %.12035, %.lr.ph ]
  %23 = tail call fastcc ptr @ObtainPhysicalAudioDevice(i32 noundef %.12037)
  %.not = icmp eq ptr %23, null
  br i1 %.not, label %.thread30, label %24

24:                                               ; preds = %.lr.ph.split.split
  %25 = load ptr, ptr getelementptr inbounds nuw (i8, ptr @current_audio, i64 136), align 8
  tail call void @SDL_LockRWLockForReading_REAL(ptr noundef %25) #14
  %26 = load i32, ptr getelementptr inbounds nuw (i8, ptr @current_audio, i64 160), align 8
  %27 = icmp eq i32 %.12037, %26
  %28 = load ptr, ptr getelementptr inbounds nuw (i8, ptr @current_audio, i64 136), align 8
  tail call void @SDL_UnlockRWLock_REAL(ptr noundef %28) #14
  br i1 %27, label %.thread30, label %29

29:                                               ; preds = %24
  tail call fastcc void @ReleaseAudioDevice(ptr noundef nonnull %23)
  %30 = load ptr, ptr getelementptr inbounds nuw (i8, ptr @current_audio, i64 136), align 8
  tail call void @SDL_LockRWLockForReading_REAL(ptr noundef %30) #14
  %31 = load i32, ptr getelementptr inbounds nuw (i8, ptr @current_audio, i64 160), align 8
  %32 = load ptr, ptr getelementptr inbounds nuw (i8, ptr @current_audio, i64 136), align 8
  tail call void @SDL_UnlockRWLock_REAL(ptr noundef %32) #14
  %33 = icmp eq i32 %31, 0
  br i1 %33, label %._crit_edge, label %.lr.ph.split.split

.thread30:                                        ; preds = %24, %.lr.ph.split.split, %.lr.ph.split.us.split, %10, %._crit_edge, %20
  %.018 = phi ptr [ %21, %20 ], [ null, %._crit_edge ], [ %9, %10 ], [ null, %.lr.ph.split.us.split ], [ %23, %24 ], [ null, %.lr.ph.split.split ]
  ret ptr %.018
}